; Function Attrs: nounwind uwtable
define internal void @select_dealloc(ptr noundef %0) #0 {
  tail call void @evsig_dealloc_(ptr noundef %0) #7
  %2 = getelementptr inbounds nuw i8, ptr %0, i64 8
  %3 = load ptr, ptr %2, align 8
  %4 = getelementptr inbounds nuw i8, ptr %3, i64 16
  %5 = load ptr, ptr %4, align 8
  %.not.i = icmp eq ptr %5, null
  br i1 %.not.i, label %7, label %6

6:                                                ; preds = %1
  tail call void @event_mm_free_(ptr noundef nonnull %5) #7
  br label %7

7:                                                ; preds = %6, %1
  %8 = getelementptr inbounds nuw i8, ptr %3, i64 24
  %9 = load ptr, ptr %8, align 8
  %.not13.i = icmp eq ptr %9, null
  br i1 %.not13.i, label %11, label %10

10:                                               ; preds = %7
  tail call void @event_mm_free_(ptr noundef nonnull %9) #7
  br label %11

11:                                               ; preds = %10, %7
  %12 = getelementptr inbounds nuw i8, ptr %3, i64 32
  %13 = load ptr, ptr %12, align 8
  %.not14.i = icmp eq ptr %13, null
  br i1 %.not14.i, label %15, label %14

14:                                               ; preds = %11
  tail call void @event_mm_free_(ptr noundef nonnull %13) #7
  br label %15

15:                                               ; preds = %14, %11
  %16 = getelementptr inbounds nuw i8, ptr %3, i64 40
  %17 = load ptr, ptr %16, align 8
  %.not15.i = icmp eq ptr %17, null
  br i1 %.not15.i, label %select_free_selectop.exit, label %18

18:                                               ; preds = %15
  tail call void @event_mm_free_(ptr noundef nonnull %17) #7
  br label %select_free_selectop.exit

select_free_selectop.exit:                        ; preds = %15, %18
  tail call void @llvm.memset.p0.i64(ptr noundef nonnull align 8 dereferenceable(48) %3, i8 0, i64 48, i1 false)
  tail call void @event_mm_free_(ptr noundef nonnull %3) #7
  ret void
}